; Function Attrs: nounwind uwtable
define dso_local ptr @dictAddOrFind(ptr noundef %0, ptr noundef %1) local_unnamed_addr #3 {
  %3 = alloca ptr, align 8
  call void @llvm.lifetime.start.p0(i64 8, ptr nonnull %3) #25
  %4 = call ptr @dictFindPositionForInsert(ptr noundef %0, ptr noundef %1, ptr noundef nonnull %3)
  %.not.i = icmp eq ptr %4, null
  br i1 %.not.i, label %dictAddRaw.exit, label %5

5:                                                ; preds = %2
  %6 = load ptr, ptr %0, align 8, !tbaa !16
  %7 = getelementptr inbounds nuw i8, ptr %6, i64 8
  %8 = load ptr, ptr %7, align 8, !tbaa !49
  %.not15.i = icmp eq ptr %8, null
  br i1 %.not15.i, label %11, label %9

9:                                                ; preds = %5
  %10 = call ptr %8(ptr noundef nonnull %0, ptr noundef %1) #25
  br label %11

11:                                               ; preds = %9, %5
  %.012.i = phi ptr [ %10, %9 ], [ %1, %5 ]
  %12 = call ptr @dictInsertAtPosition(ptr noundef nonnull %0, ptr noundef %.012.i, ptr noundef nonnull %4)
  br label %dictAddRaw.exit

dictAddRaw.exit:                                  ; preds = %2, %11
  %.0.i = phi ptr [ %12, %11 ], [ null, %2 ]
  %.not = icmp eq ptr %.0.i, null
  %13 = load ptr, ptr %3, align 8
  %14 = select i1 %.not, ptr %13, ptr %.0.i
  call void @llvm.lifetime.end.p0(i64 8, ptr nonnull %3) #25
  ret ptr %14
}